	.file	"inline_func.cpp"
	.text
	.section	.text._ZNKSt5ctypeIcE8do_widenEc,"axG",@progbits,_ZNKSt5ctypeIcE8do_widenEc,comdat
	.align 2
	.p2align 4
	.weak	_ZNKSt5ctypeIcE8do_widenEc
	.type	_ZNKSt5ctypeIcE8do_widenEc, @function
_ZNKSt5ctypeIcE8do_widenEc:
.LFB1565:
	.cfi_startproc
	endbr64
	movl	%esi, %eax
	ret
	.cfi_endproc
.LFE1565:
	.size	_ZNKSt5ctypeIcE8do_widenEc, .-_ZNKSt5ctypeIcE8do_widenEc
	.text
	.p2align 4
	.type	_ZSt4endlIcSt11char_traitsIcEERSt13basic_ostreamIT_T0_ES6_.isra.0, @function
_ZSt4endlIcSt11char_traitsIcEERSt13basic_ostreamIT_T0_ES6_.isra.0:
.LFB2304:
	.cfi_startproc
	pushq	%r12
	.cfi_def_cfa_offset 16
	.cfi_offset 12, -16
	pushq	%rbp
	.cfi_def_cfa_offset 24
	.cfi_offset 6, -24
	subq	$8, %rsp
	.cfi_def_cfa_offset 32
	movq	(%rdi), %rax
	movq	-24(%rax), %rax
	movq	240(%rdi,%rax), %r12
	testq	%r12, %r12
	je	.L9
	cmpb	$0, 56(%r12)
	movq	%rdi, %rbp
	je	.L5
	movsbl	67(%r12), %esi
.L6:
	movq	%rbp, %rdi
	call	_ZNSo3putEc@PLT
	addq	$8, %rsp
	.cfi_remember_state
	.cfi_def_cfa_offset 24
	popq	%rbp
	.cfi_def_cfa_offset 16
	movq	%rax, %rdi
	popq	%r12
	.cfi_def_cfa_offset 8
	jmp	_ZNSo5flushEv@PLT
.L5:
	.cfi_restore_state
	movq	%r12, %rdi
	call	_ZNKSt5ctypeIcE13_M_widen_initEv@PLT
	movq	(%r12), %rax
	movl	$10, %esi
	leaq	_ZNKSt5ctypeIcE8do_widenEc(%rip), %rdx
	movq	48(%rax), %rax
	cmpq	%rdx, %rax
	je	.L6
	movl	$10, %esi
	movq	%r12, %rdi
	call	*%rax
	movsbl	%al, %esi
	jmp	.L6
.L9:
	call	_ZSt16__throw_bad_castv@PLT
	.cfi_endproc
.LFE2304:
	.size	_ZSt4endlIcSt11char_traitsIcEERSt13basic_ostreamIT_T0_ES6_.isra.0, .-_ZSt4endlIcSt11char_traitsIcEERSt13basic_ostreamIT_T0_ES6_.isra.0
	.section	.text.startup,"ax",@progbits
	.p2align 4
	.globl	main
	.type	main, @function
main:
.LFB1812:
	.cfi_startproc
	endbr64
	pushq	%rbp
	.cfi_def_cfa_offset 16
	.cfi_offset 6, -16
	leaq	_ZSt4cout(%rip), %rbp
	movl	$66, %esi
	movq	%rbp, %rdi
	call	_ZNSolsEi@PLT
	movq	%rax, %rdi
	call	_ZSt4endlIcSt11char_traitsIcEERSt13basic_ostreamIT_T0_ES6_.isra.0
	movq	%rbp, %rdi
	movl	$66, %esi
	call	_ZNSolsEi@PLT
	movq	%rax, %rdi
	call	_ZSt4endlIcSt11char_traitsIcEERSt13basic_ostreamIT_T0_ES6_.isra.0
	xorl	%eax, %eax
	popq	%rbp
	.cfi_def_cfa_offset 8
	ret
	.cfi_endproc
.LFE1812:
	.size	main, .-main
	.text
	.p2align 4
	.globl	_Z4max2ii
	.type	_Z4max2ii, @function
_Z4max2ii:
.LFB1814:
	.cfi_startproc
	endbr64
	cmpl	%edi, %esi
	movl	%edi, %eax
	cmovge	%esi, %eax
	ret
	.cfi_endproc
.LFE1814:
	.size	_Z4max2ii, .-_Z4max2ii
	.section	.text.startup
	.p2align 4
	.type	_GLOBAL__sub_I_main, @function
_GLOBAL__sub_I_main:
.LFB2301:
	.cfi_startproc
	endbr64
	pushq	%rbp
	.cfi_def_cfa_offset 16
	.cfi_offset 6, -16
	leaq	_ZStL8__ioinit(%rip), %rbp
	movq	%rbp, %rdi
	call	_ZNSt8ios_base4InitC1Ev@PLT
	movq	_ZNSt8ios_base4InitD1Ev@GOTPCREL(%rip), %rdi
	movq	%rbp, %rsi
	popq	%rbp
	.cfi_def_cfa_offset 8
	leaq	__dso_handle(%rip), %rdx
	jmp	__cxa_atexit@PLT
	.cfi_endproc
.LFE2301:
	.size	_GLOBAL__sub_I_main, .-_GLOBAL__sub_I_main
	.section	.init_array,"aw"
	.align 8
	.quad	_GLOBAL__sub_I_main
	.local	_ZStL8__ioinit
	.comm	_ZStL8__ioinit,1,1
	.hidden	__dso_handle
	.ident	"GCC: (Ubuntu 11.4.0-1ubuntu1~22.04.3) 11.4.0"
	.section	.note.GNU-stack,"",@progbits
	.section	.note.gnu.property,"a"
	.align 8
	.long	1f - 0f
	.long	4f - 1f
	.long	5
0:
	.string	"GNU"
1:
	.align 8
	.long	0xc0000002
	.long	3f - 2f
2:
	.long	0x3
3:
	.align 8
4:
